; Function Attrs: mustprogress nounwind uwtable
define dso_local void @_ZN3ozz2io12MemoryStreamD0Ev(ptr noundef nonnull align 8 dereferenceable(32) initializes((0, 8)) %0) unnamed_addr #5 align 2 personality ptr @__gxx_personality_v0 {
  store ptr getelementptr inbounds nuw inrange(-16, 64) (i8, ptr @_ZTVN3ozz2io12MemoryStreamE, i64 16), ptr %0, align 8, !tbaa !4
  %2 = invoke noundef ptr @_ZN3ozz6memory17default_allocatorEv()
          to label %3 unwind label %9

3:                                                ; preds = %1
  %4 = getelementptr inbounds nuw i8, ptr %0, i64 8
  %5 = load ptr, ptr %4, align 8, !tbaa !14
  %6 = load ptr, ptr %2, align 8, !tbaa !4
  %7 = getelementptr inbounds nuw i8, ptr %6, i64 24
  %8 = load ptr, ptr %7, align 8
  invoke void %8(ptr noundef nonnull align 8 dereferenceable(8) %2, ptr noundef %5)
          to label %_ZN3ozz2io12MemoryStreamD2Ev.exit unwind label %9

9:                                                ; preds = %3, %1
  %10 = landingpad { ptr, i32 }
          catch ptr null
  %11 = extractvalue { ptr, i32 } %10, 0
  tail call void @__clang_call_terminate(ptr %11) #17
  unreachable

_ZN3ozz2io12MemoryStreamD2Ev.exit:                ; preds = %3
  tail call void @_ZdlPvm(ptr noundef nonnull %0, i64 noundef 32) #18
  ret void
}